target datalayout = "e-m:e-p270:32:32-p271:32:32-p272:64:64-i64:64-i128:128-f80:128-n8:16:32:64-S128"
target triple = "x86_64-pc-linux-gnu"

%struct.ziplistEntry = type { ptr, i32, i64 }

@.str.1 = private unnamed_addr constant [10 x i8] c"ziplist.c\00", align 1
@.str.28 = private unnamed_addr constant [12 x i8] c"total_count\00", align 1
@.str.29 = private unnamed_addr constant [9 x i8] c"ret != 0\00", align 1

; Function Attrs: nounwind uwtable
define dso_local void @ziplistRandomPair(ptr noundef %0, i64 noundef %1, ptr noundef %2, ptr noundef %3) #0 {
  %5 = alloca ptr, align 8
  %6 = alloca i64, align 8
  %7 = alloca ptr, align 8
  %8 = alloca ptr, align 8
  %9 = alloca i32, align 4
  %10 = alloca ptr, align 8
  %11 = alloca i32, align 4
  %12 = alloca i32, align 4
  store ptr %0, ptr %5, align 8, !tbaa !5
  store i64 %1, ptr %6, align 8, !tbaa !10
  store ptr %2, ptr %7, align 8, !tbaa !47
  store ptr %3, ptr %8, align 8, !tbaa !47
  call void @llvm.lifetime.start.p0(i64 4, ptr %9) #11
  call void @llvm.lifetime.start.p0(i64 8, ptr %10) #11
  %13 = load i64, ptr %6, align 8, !tbaa !10
  %14 = icmp ne i64 %13, 0
  %15 = xor i1 %14, true
  %16 = xor i1 %15, true
  %17 = zext i1 %16 to i32
  %18 = sext i32 %17 to i64
  %19 = call i64 @llvm.expect.i64(i64 %18, i64 1)
  %20 = icmp ne i64 %19, 0
  br i1 %20, label %21, label %22

21:                                               ; preds = %4
  br label %24

22:                                               ; preds = %4
  call void @_serverAssert(ptr noundef @.str.28, ptr noundef @.str.1, i32 noundef 1566)
  call void @abort() #12
  unreachable

23:                                               ; No predecessors!
  br label %24

24:                                               ; preds = %23, %21
  call void @llvm.lifetime.start.p0(i64 4, ptr %11) #11
  %25 = call i32 @rand() #11
  %26 = sext i32 %25 to i64
  %27 = load i64, ptr %6, align 8, !tbaa !10
  %28 = urem i64 %26, %27
  %29 = mul i64 %28, 2
  %30 = trunc i64 %29 to i32
  store i32 %30, ptr %11, align 4, !tbaa !12
  %31 = load ptr, ptr %5, align 8, !tbaa !5
  %32 = load i32, ptr %11, align 4, !tbaa !12
  %33 = call ptr @ziplistIndex(ptr noundef %31, i32 noundef %32)
  store ptr %33, ptr %10, align 8, !tbaa !5
  %34 = load ptr, ptr %10, align 8, !tbaa !5
  %35 = load ptr, ptr %7, align 8, !tbaa !47
  %36 = getelementptr inbounds nuw %struct.ziplistEntry, ptr %35, i32 0, i32 0
  %37 = load ptr, ptr %7, align 8, !tbaa !47
  %38 = getelementptr inbounds nuw %struct.ziplistEntry, ptr %37, i32 0, i32 1
  %39 = load ptr, ptr %7, align 8, !tbaa !47
  %40 = getelementptr inbounds nuw %struct.ziplistEntry, ptr %39, i32 0, i32 2
  %41 = call i32 @ziplistGet(ptr noundef %34, ptr noundef %36, ptr noundef %38, ptr noundef %40)
  store i32 %41, ptr %9, align 4, !tbaa !12
  %42 = load i32, ptr %9, align 4, !tbaa !12
  %43 = icmp ne i32 %42, 0
  %44 = xor i1 %43, true
  %45 = xor i1 %44, true
  %46 = zext i1 %45 to i32
  %47 = sext i32 %46 to i64
  %48 = call i64 @llvm.expect.i64(i64 %47, i64 1)
  %49 = icmp ne i64 %48, 0
  br i1 %49, label %50, label %51

50:                                               ; preds = %24
  br label %53

51:                                               ; preds = %24
  call void @_serverAssert(ptr noundef @.str.29, ptr noundef @.str.1, i32 noundef 1572)
  call void @abort() #12
  unreachable

52:                                               ; No predecessors!
  br label %53

53:                                               ; preds = %52, %50
  %54 = load ptr, ptr %8, align 8, !tbaa !47
  %55 = icmp ne ptr %54, null
  br i1 %55, label %57, label %56

56:                                               ; preds = %53
  store i32 1, ptr %12, align 4
  br label %81

57:                                               ; preds = %53
  %58 = load ptr, ptr %5, align 8, !tbaa !5
  %59 = load ptr, ptr %10, align 8, !tbaa !5
  %60 = call ptr @ziplistNext(ptr noundef %58, ptr noundef %59)
  store ptr %60, ptr %10, align 8, !tbaa !5
  %61 = load ptr, ptr %10, align 8, !tbaa !5
  %62 = load ptr, ptr %8, align 8, !tbaa !47
  %63 = getelementptr inbounds nuw %struct.ziplistEntry, ptr %62, i32 0, i32 0
  %64 = load ptr, ptr %8, align 8, !tbaa !47
  %65 = getelementptr inbounds nuw %struct.ziplistEntry, ptr %64, i32 0, i32 1
  %66 = load ptr, ptr %8, align 8, !tbaa !47
  %67 = getelementptr inbounds nuw %struct.ziplistEntry, ptr %66, i32 0, i32 2
  %68 = call i32 @ziplistGet(ptr noundef %61, ptr noundef %63, ptr noundef %65, ptr noundef %67)
  store i32 %68, ptr %9, align 4, !tbaa !12
  %69 = load i32, ptr %9, align 4, !tbaa !12
  %70 = icmp ne i32 %69, 0
  %71 = xor i1 %70, true
  %72 = xor i1 %71, true
  %73 = zext i1 %72 to i32
  %74 = sext i32 %73 to i64
  %75 = call i64 @llvm.expect.i64(i64 %74, i64 1)
  %76 = icmp ne i64 %75, 0
  br i1 %76, label %77, label %78

77:                                               ; preds = %57
  br label %80

78:                                               ; preds = %57
  call void @_serverAssert(ptr noundef @.str.29, ptr noundef @.str.1, i32 noundef 1578)
  call void @abort() #12
  unreachable

79:                                               ; No predecessors!
  br label %80

80:                                               ; preds = %79, %77
  store i32 0, ptr %12, align 4
  br label %81

81:                                               ; preds = %80, %56
  call void @llvm.lifetime.end.p0(i64 4, ptr %11) #11
  call void @llvm.lifetime.end.p0(i64 8, ptr %10) #11
  call void @llvm.lifetime.end.p0(i64 4, ptr %9) #11
  %82 = load i32, ptr %12, align 4
  switch i32 %82, label %84 [
    i32 0, label %83
    i32 1, label %83
  ]

83:                                               ; preds = %81, %81
  ret void

84:                                               ; preds = %81
  unreachable
}