; Function Attrs: nounwind uwtable
define dso_local void @ziplistRandomPair(ptr noundef %0, i64 noundef %1, ptr noundef captures(address_is_null) %2, ptr noundef captures(address_is_null) %3) local_unnamed_addr #5 {
  %.not = icmp eq i64 %1, 0
  br i1 %.not, label %5, label %6, !prof !24

5:                                                ; preds = %4
  tail call void @_serverAssert(ptr noundef nonnull @.str.28, ptr noundef nonnull @.str.1, i32 noundef 1566) #17
  tail call void @abort() #18
  unreachable

6:                                                ; preds = %4
  %7 = tail call i32 @rand() #17
  %8 = sext i32 %7 to i64
  %9 = urem i64 %8, %1
  %.tr = trunc i64 %9 to i32
  %10 = shl i32 %.tr, 1
  %11 = tail call ptr @ziplistIndex(ptr noundef %0, i32 noundef %10)
  %12 = getelementptr inbounds nuw i8, ptr %2, i64 8
  %13 = getelementptr inbounds nuw i8, ptr %2, i64 16
  %14 = tail call i32 @ziplistGet(ptr noundef %11, ptr noundef %2, ptr noundef nonnull %12, ptr noundef nonnull %13)
  %.not17 = icmp eq i32 %14, 0
  br i1 %.not17, label %15, label %16, !prof !24

15:                                               ; preds = %6
  tail call void @_serverAssert(ptr noundef nonnull @.str.29, ptr noundef nonnull @.str.1, i32 noundef 1572) #17
  tail call void @abort() #18
  unreachable

16:                                               ; preds = %6
  %.not18 = icmp eq ptr %3, null
  br i1 %.not18, label %23, label %17

17:                                               ; preds = %16
  %18 = tail call ptr @ziplistNext(ptr noundef %0, ptr noundef %11)
  %19 = getelementptr inbounds nuw i8, ptr %3, i64 8
  %20 = getelementptr inbounds nuw i8, ptr %3, i64 16
  %21 = tail call i32 @ziplistGet(ptr noundef %18, ptr noundef nonnull %3, ptr noundef nonnull %19, ptr noundef nonnull %20)
  %.not19 = icmp eq i32 %21, 0
  br i1 %.not19, label %22, label %23, !prof !24

22:                                               ; preds = %17
  tail call void @_serverAssert(ptr noundef nonnull @.str.29, ptr noundef nonnull @.str.1, i32 noundef 1578) #17
  tail call void @abort() #18
  unreachable

23:                                               ; preds = %17, %16
  ret void
}